target datalayout = "e-m:e-p270:32:32-p271:32:32-p272:64:64-i64:64-i128:128-f80:128-n8:16:32:64-S128"
target triple = "x86_64-pc-linux-gnu"

%struct.AVPacketSideData = type { ptr, i64, i32 }

; Function Attrs: nounwind uwtable
define void @av_packet_side_data_remove(ptr noundef %0, ptr noundef %1, i32 noundef %2) #0 {
  %4 = alloca ptr, align 8
  %5 = alloca ptr, align 8
  %6 = alloca i32, align 4
  %7 = alloca i32, align 4
  %8 = alloca i32, align 4
  %9 = alloca i32, align 4
  store ptr %0, ptr %4, align 8, !tbaa !47
  store ptr %1, ptr %5, align 8, !tbaa !93
  store i32 %2, ptr %6, align 4, !tbaa !28
  call void @llvm.lifetime.start.p0(i64 4, ptr %7) #9
  %10 = load ptr, ptr %5, align 8, !tbaa !93
  %11 = load i32, ptr %10, align 4, !tbaa !28
  store i32 %11, ptr %7, align 4, !tbaa !28
  call void @llvm.lifetime.start.p0(i64 4, ptr %8) #9
  %12 = load i32, ptr %7, align 4, !tbaa !28
  %13 = sub nsw i32 %12, 1
  store i32 %13, ptr %8, align 4, !tbaa !28
  br label %14

14:                                               ; preds = %44, %3
  %15 = load i32, ptr %8, align 4, !tbaa !28
  %16 = icmp sge i32 %15, 0
  br i1 %16, label %18, label %17

17:                                               ; preds = %14
  store i32 2, ptr %9, align 4
  br label %47

18:                                               ; preds = %14
  %19 = load ptr, ptr %4, align 8, !tbaa !47
  %20 = load i32, ptr %8, align 4, !tbaa !28
  %21 = sext i32 %20 to i64
  %22 = getelementptr inbounds %struct.AVPacketSideData, ptr %19, i64 %21
  %23 = getelementptr inbounds nuw %struct.AVPacketSideData, ptr %22, i32 0, i32 2
  %24 = load i32, ptr %23, align 8, !tbaa !48
  %25 = load i32, ptr %6, align 4, !tbaa !28
  %26 = icmp ne i32 %24, %25
  br i1 %26, label %27, label %28

27:                                               ; preds = %18
  br label %44

28:                                               ; preds = %18
  %29 = load ptr, ptr %4, align 8, !tbaa !47
  %30 = load i32, ptr %8, align 4, !tbaa !28
  %31 = sext i32 %30 to i64
  %32 = getelementptr inbounds %struct.AVPacketSideData, ptr %29, i64 %31
  %33 = getelementptr inbounds nuw %struct.AVPacketSideData, ptr %32, i32 0, i32 0
  %34 = load ptr, ptr %33, align 8, !tbaa !50
  call void @av_free(ptr noundef %34)
  %35 = load ptr, ptr %4, align 8, !tbaa !47
  %36 = load i32, ptr %8, align 4, !tbaa !28
  %37 = sext i32 %36 to i64
  %38 = getelementptr inbounds %struct.AVPacketSideData, ptr %35, i64 %37
  %39 = load ptr, ptr %4, align 8, !tbaa !47
  %40 = load i32, ptr %7, align 4, !tbaa !28
  %41 = add nsw i32 %40, -1
  store i32 %41, ptr %7, align 4, !tbaa !28
  %42 = sext i32 %41 to i64
  %43 = getelementptr inbounds %struct.AVPacketSideData, ptr %39, i64 %42
  call void @llvm.memcpy.p0.p0.i64(ptr align 8 %38, ptr align 8 %43, i64 24, i1 false), !tbaa.struct !96
  store i32 2, ptr %9, align 4
  br label %47

44:                                               ; preds = %27
  %45 = load i32, ptr %8, align 4, !tbaa !28
  %46 = add nsw i32 %45, -1
  store i32 %46, ptr %8, align 4, !tbaa !28
  br label %14, !llvm.loop !97

47:                                               ; preds = %28, %17
  call void @llvm.lifetime.end.p0(i64 4, ptr %8) #9
  br label %48

48:                                               ; preds = %47
  %49 = load i32, ptr %7, align 4, !tbaa !28
  %50 = load ptr, ptr %5, align 8, !tbaa !93
  store i32 %49, ptr %50, align 4, !tbaa !28
  call void @llvm.lifetime.end.p0(i64 4, ptr %7) #9
  ret void
}