; Function Attrs: nounwind uwtable
define void @av_packet_side_data_remove(ptr noundef captures(none) %0, ptr noundef captures(none) %1, i32 noundef %2) local_unnamed_addr #3 {
  %4 = load i32, ptr %1, align 4, !tbaa !52
  %5 = zext i32 %4 to i64
  br label %6

6:                                                ; preds = %9, %3
  %indvars.iv = phi i64 [ %10, %9 ], [ %5, %3 ]
  %7 = trunc nuw i64 %indvars.iv to i32
  %8 = icmp sgt i32 %7, 0
  br i1 %8, label %9, label %.loopexit

9:                                                ; preds = %6
  %10 = add nsw i64 %indvars.iv, -1
  %11 = getelementptr inbounds nuw %struct.AVPacketSideData, ptr %0, i64 %10
  %12 = getelementptr inbounds nuw i8, ptr %11, i64 16
  %13 = load i32, ptr %12, align 8, !tbaa !35
  %.not = icmp eq i32 %13, %2
  br i1 %.not, label %14, label %6, !llvm.loop !69

14:                                               ; preds = %9
  %15 = load ptr, ptr %11, align 8, !tbaa !37
  tail call void @av_free(ptr noundef %15) #16
  %16 = add nsw i32 %4, -1
  %17 = sext i32 %16 to i64
  %18 = getelementptr inbounds %struct.AVPacketSideData, ptr %0, i64 %17
  tail call void @llvm.memcpy.p0.p0.i64(ptr noundef nonnull align 8 dereferenceable(24) %11, ptr noundef nonnull align 8 dereferenceable(24) %18, i64 24, i1 false), !tbaa.struct !70
  br label %.loopexit

.loopexit:                                        ; preds = %6, %14
  %.014 = phi i32 [ %16, %14 ], [ %4, %6 ]
  store i32 %.014, ptr %1, align 4, !tbaa !52
  ret void
}